target datalayout = "e-m:e-p270:32:32-p271:32:32-p272:64:64-i64:64-i128:128-f80:128-n8:16:32:64-S128"
target triple = "x86_64-pc-linux-gnu"

%"class.gmx::FreeEnergyPerturbationData::Element" = type <{ %"class.gmx::ISimulatorElement", %"class.gmx::ICheckpointHelperClient", %"class.gmx::IDomDecHelperClient", ptr, i8, [7 x i8], %"class.std::optional.17", i32, i8, [3 x i8] }>
%"class.gmx::ISimulatorElement" = type { ptr }
%"class.gmx::ICheckpointHelperClient" = type { ptr }
%"class.gmx::IDomDecHelperClient" = type { ptr }
%"class.std::optional.17" = type { %"struct.std::_Optional_base.18" }
%"struct.std::_Optional_base.18" = type { %"struct.std::_Optional_payload.20" }
%"struct.std::_Optional_payload.20" = type { %"struct.std::_Optional_payload_base.base.22", [7 x i8] }
%"struct.std::_Optional_payload_base.base.22" = type <{ %"union.std::_Optional_payload_base<gmx::FepStateSetting>::_Storage", i8 }>
%"union.std::_Optional_payload_base<gmx::FepStateSetting>::_Storage" = type { %"class.gmx::FepStateSetting" }
%"class.gmx::FepStateSetting" = type { i64, i32, i64 }
%"struct.std::_Optional_payload_base.21" = type <{ %"union.std::_Optional_payload_base<gmx::FepStateSetting>::_Storage", i8, [7 x i8] }>
%class.anon.268 = type { i8 }
%class.anon.270 = type { i8 }
%class.anon.272 = type { i8 }

@_ZTISt19bad_optional_access = linkonce_odr constant { ptr, ptr, ptr } { ptr getelementptr inbounds (ptr, ptr @_ZTVN10__cxxabiv120__si_class_type_infoE, i64 2), ptr @_ZTSSt19bad_optional_access, ptr @_ZTISt9exception }, comdat, align 8
@_ZTVSt19bad_optional_access = linkonce_odr unnamed_addr constant { [5 x ptr] } { [5 x ptr] [ptr null, ptr @_ZTISt19bad_optional_access, ptr @_ZNSt9exceptionD2Ev, ptr @_ZNSt19bad_optional_accessD0Ev, ptr @_ZNKSt19bad_optional_access4whatEv] }, comdat, align 8
@_ZTVSt9exception = available_externally unnamed_addr constant { [5 x ptr] } { [5 x ptr] [ptr null, ptr @_ZTISt9exception, ptr @_ZNSt9exceptionD1Ev, ptr @_ZNSt9exceptionD0Ev, ptr @_ZNKSt9exception4whatEv] }, align 8
@.str.27 = private unnamed_addr constant [153 x i8] c"generated/home/dtcxzyw/WorkSpace/Projects/compilers/llvm-opt-benchmark/bench/gromacs/gromacs/src/gromacs/modularsimulator/freeenergyperturbationdata.cpp\00", align 1
@.str.28 = private unnamed_addr constant [15 x i8] c"!doSlowGrowth_\00", align 1
@.str.29 = private unnamed_addr constant [61 x i8] c"External FEP state setting is incompatible with slow growth.\00", align 1
@"__PRETTY_FUNCTION__._ZZN3gmx26FreeEnergyPerturbationData7Element29enableExternalFepStateSettingEvENK3$_0clEv" = private unnamed_addr constant [118 x i8] c"auto gmx::FreeEnergyPerturbationData::Element::enableExternalFepStateSetting()::(anonymous class)::operator()() const\00", align 1
@.str.30 = private unnamed_addr constant [40 x i8] c"numExternalFepStateSettingClients_ == 0\00", align 1
@.str.31 = private unnamed_addr constant [67 x i8] c"External FEP state setting by more than one element not supported.\00", align 1
@.str.32 = private unnamed_addr constant [25 x i8] c"!restoredFromCheckpoint_\00", align 1
@.str.33 = private unnamed_addr constant [117 x i8] c"Checkpoint mismatch: Checkpointed simulation did not use external lambda setting, while the current simulation does.\00", align 1

; Function Attrs: mustprogress nounwind uwtable
define linkonce_odr void @_ZNSt9exceptionC2Ev(ptr noundef nonnull align 8 dereferenceable(8) %0) unnamed_addr #1 comdat align 2 {
  %2 = alloca ptr, align 8
  store ptr %0, ptr %2, align 8, !tbaa !580
  %3 = load ptr, ptr %2, align 8
  store ptr getelementptr inbounds inrange(-16, 24) ({ [5 x ptr] }, ptr @_ZTVSt9exception, i32 0, i32 0, i32 2), ptr %3, align 8, !tbaa !439
  ret void
}

; Function Attrs: noinline noreturn nounwind uwtable
define linkonce_odr hidden void @__clang_call_terminate(ptr noundef %0) #11 comdat {
  %2 = call ptr @__cxa_begin_catch(ptr %0) #22
  call void @_ZSt9terminatev() #25
  unreachable
}

; Function Attrs: inlinehint mustprogress nounwind uwtable
define linkonce_odr void @_ZSt10_ConstructIN3gmx15FepStateSettingEJS1_EEvPT_DpOT0_(ptr noundef %0, ptr noundef nonnull align 8 dereferenceable(24) %1) #2 comdat {
  %3 = alloca ptr, align 8
  %4 = alloca ptr, align 8
  store ptr %0, ptr %3, align 8, !tbaa !638
  store ptr %1, ptr %4, align 8, !tbaa !638
  %5 = load ptr, ptr %3, align 8, !tbaa !638
  %6 = load ptr, ptr %4, align 8, !tbaa !638
  call void @llvm.memcpy.p0.p0.i64(ptr align 8 %5, ptr align 8 %6, i64 24, i1 false), !tbaa.struct !640
  ret void
}

; Function Attrs: mustprogress nounwind uwtable
define linkonce_odr void @_ZNSt19bad_optional_accessC2Ev(ptr noundef nonnull align 8 dereferenceable(8) %0) unnamed_addr #1 comdat align 2 {
  %2 = alloca ptr, align 8
  store ptr %0, ptr %2, align 8, !tbaa !578
  %3 = load ptr, ptr %2, align 8
  call void @_ZNSt9exceptionC2Ev(ptr noundef nonnull align 8 dereferenceable(8) %3) #22
  store ptr getelementptr inbounds inrange(-16, 24) ({ [5 x ptr] }, ptr @_ZTVSt19bad_optional_access, i32 0, i32 0, i32 2), ptr %3, align 8, !tbaa !439
  ret void
}

; Function Attrs: mustprogress nounwind uwtable
define linkonce_odr void @_ZNSt22_Optional_payload_baseIN3gmx15FepStateSettingEE12_M_constructIJS1_EEEvDpOT_(ptr noundef nonnull align 8 dereferenceable(25) %0, ptr noundef nonnull align 8 dereferenceable(24) %1) #1 comdat align 2 personality ptr @__gxx_personality_v0 {
  %3 = alloca ptr, align 8
  %4 = alloca ptr, align 8
  store ptr %0, ptr %3, align 8, !tbaa !267
  store ptr %1, ptr %4, align 8, !tbaa !638
  %5 = load ptr, ptr %3, align 8
  %6 = getelementptr inbounds nuw %"struct.std::_Optional_payload_base.21", ptr %5, i32 0, i32 0
  %7 = load ptr, ptr %4, align 8, !tbaa !638
  invoke void @_ZSt10_ConstructIN3gmx15FepStateSettingEJS1_EEvPT_DpOT0_(ptr noundef %6, ptr noundef nonnull align 8 dereferenceable(24) %7)
          to label %8 unwind label %10

8:                                                ; preds = %2
  %9 = getelementptr inbounds nuw %"struct.std::_Optional_payload_base.21", ptr %5, i32 0, i32 1
  store i8 1, ptr %9, align 8, !tbaa !266
  ret void

10:                                               ; preds = %2
  %11 = landingpad { ptr, i32 }
          catch ptr null
  %12 = extractvalue { ptr, i32 } %11, 0
  call void @__clang_call_terminate(ptr %12) #25
  unreachable
}

; Function Attrs: mustprogress nounwind uwtable
define linkonce_odr noundef nonnull align 8 dereferenceable(24) ptr @_ZNSt22_Optional_payload_baseIN3gmx15FepStateSettingEE6_M_getEv(ptr noundef nonnull align 8 dereferenceable(25) %0) #1 comdat align 2 {
  %2 = alloca ptr, align 8
  store ptr %0, ptr %2, align 8, !tbaa !267
  %3 = load ptr, ptr %2, align 8
  %4 = getelementptr inbounds nuw %"struct.std::_Optional_payload_base.21", ptr %3, i32 0, i32 0
  ret ptr %4
}

; Function Attrs: inlinehint mustprogress noreturn uwtable
define linkonce_odr void @_ZSt27__throw_bad_optional_accessv() #19 comdat {
  %1 = call ptr @__cxa_allocate_exception(i64 8) #22
  call void @llvm.memset.p0.i64(ptr align 16 %1, i8 0, i64 8, i1 false)
  call void @_ZNSt19bad_optional_accessC2Ev(ptr noundef nonnull align 8 dereferenceable(8) %1) #22
  call void @__cxa_throw(ptr %1, ptr @_ZTISt19bad_optional_access, ptr @_ZNSt9exceptionD2Ev) #26
  unreachable
}

; Function Attrs: mustprogress nounwind uwtable
define linkonce_odr void @_ZNSt19_Optional_base_implIN3gmx15FepStateSettingESt14_Optional_baseIS1_Lb1ELb1EEE12_M_constructIJS1_EEEvDpOT_(ptr noundef nonnull align 1 dereferenceable(1) %0, ptr noundef nonnull align 8 dereferenceable(24) %1) #1 comdat align 2 {
  %3 = alloca ptr, align 8
  %4 = alloca ptr, align 8
  store ptr %0, ptr %3, align 8, !tbaa !264
  store ptr %1, ptr %4, align 8, !tbaa !638
  %5 = load ptr, ptr %3, align 8
  %6 = getelementptr inbounds nuw %"struct.std::_Optional_base.18", ptr %5, i32 0, i32 0
  %7 = load ptr, ptr %4, align 8, !tbaa !638
  call void @_ZNSt22_Optional_payload_baseIN3gmx15FepStateSettingEE12_M_constructIJS1_EEEvDpOT_(ptr noundef nonnull align 8 dereferenceable(25) %6, ptr noundef nonnull align 8 dereferenceable(24) %7) #22
  ret void
}

; Function Attrs: mustprogress nounwind uwtable
define linkonce_odr noundef nonnull align 8 dereferenceable(24) ptr @_ZNSt19_Optional_base_implIN3gmx15FepStateSettingESt14_Optional_baseIS1_Lb1ELb1EEE6_M_getEv(ptr noundef nonnull align 1 dereferenceable(1) %0) #1 comdat align 2 {
  %2 = alloca ptr, align 8
  store ptr %0, ptr %2, align 8, !tbaa !264
  %3 = load ptr, ptr %2, align 8
  br label %4

4:                                                ; preds = %1
  br label %5

5:                                                ; preds = %4
  br label %6

6:                                                ; preds = %5
  %7 = getelementptr inbounds nuw %"struct.std::_Optional_base.18", ptr %3, i32 0, i32 0
  %8 = call noundef nonnull align 8 dereferenceable(24) ptr @_ZNSt22_Optional_payload_baseIN3gmx15FepStateSettingEE6_M_getEv(ptr noundef nonnull align 8 dereferenceable(25) %7) #22
  ret ptr %8
}

; Function Attrs: mustprogress nounwind uwtable
define linkonce_odr noundef zeroext i1 @_ZNKSt19_Optional_base_implIN3gmx15FepStateSettingESt14_Optional_baseIS1_Lb1ELb1EEE13_M_is_engagedEv(ptr noundef nonnull align 1 dereferenceable(1) %0) #1 comdat align 2 {
  %2 = alloca ptr, align 8
  store ptr %0, ptr %2, align 8, !tbaa !264
  %3 = load ptr, ptr %2, align 8
  %4 = getelementptr inbounds nuw %"struct.std::_Optional_base.18", ptr %3, i32 0, i32 0
  %5 = getelementptr inbounds nuw %"struct.std::_Optional_payload_base.21", ptr %4, i32 0, i32 1
  %6 = load i8, ptr %5, align 8, !tbaa !266, !range !31, !noundef !32
  %7 = trunc i8 %6 to i1
  ret i1 %7
}

; Function Attrs: mustprogress uwtable
define linkonce_odr noundef nonnull align 8 dereferenceable(24) ptr @_ZNRSt8optionalIN3gmx15FepStateSettingEE5valueEv(ptr noundef nonnull align 8 dereferenceable(32) %0) #0 comdat align 2 {
  %2 = alloca ptr, align 8
  store ptr %0, ptr %2, align 8, !tbaa !251
  %3 = load ptr, ptr %2, align 8
  %4 = call noundef zeroext i1 @_ZNKSt19_Optional_base_implIN3gmx15FepStateSettingESt14_Optional_baseIS1_Lb1ELb1EEE13_M_is_engagedEv(ptr noundef nonnull align 1 dereferenceable(1) %3) #22
  br i1 %4, label %5, label %7

5:                                                ; preds = %1
  %6 = call noundef nonnull align 8 dereferenceable(24) ptr @_ZNSt19_Optional_base_implIN3gmx15FepStateSettingESt14_Optional_baseIS1_Lb1ELb1EEE6_M_getEv(ptr noundef nonnull align 1 dereferenceable(1) %3) #22
  ret ptr %6

7:                                                ; preds = %1
  call void @_ZSt27__throw_bad_optional_accessv() #26
  unreachable
}

; Function Attrs: mustprogress nounwind uwtable
define linkonce_odr noundef nonnull align 8 dereferenceable(32) ptr @_ZNSt8optionalIN3gmx15FepStateSettingEEaSIS1_EENSt9enable_ifIX7__and_vISt6__not_ISt7is_sameIS2_NSt9remove_cvINSt16remove_referenceIT_E4typeEE4typeEEES5_ISt6__and_IJSt9is_scalarIS1_ES6_IS1_NSt5decayIS9_E4typeEEEEESt16is_constructibleIS1_JS9_EESt13is_assignableIRS1_S9_EEERS2_E4typeEOS9_(ptr noundef nonnull align 8 dereferenceable(32) %0, ptr noundef nonnull align 8 dereferenceable(24) %1) #1 comdat align 2 {
  %3 = alloca ptr, align 8
  %4 = alloca ptr, align 8
  store ptr %0, ptr %3, align 8, !tbaa !251
  store ptr %1, ptr %4, align 8, !tbaa !638
  %5 = load ptr, ptr %3, align 8
  %6 = call noundef zeroext i1 @_ZNKSt19_Optional_base_implIN3gmx15FepStateSettingESt14_Optional_baseIS1_Lb1ELb1EEE13_M_is_engagedEv(ptr noundef nonnull align 1 dereferenceable(1) %5) #22
  br i1 %6, label %7, label %10

7:                                                ; preds = %2
  %8 = load ptr, ptr %4, align 8, !tbaa !638
  %9 = call noundef nonnull align 8 dereferenceable(24) ptr @_ZNSt19_Optional_base_implIN3gmx15FepStateSettingESt14_Optional_baseIS1_Lb1ELb1EEE6_M_getEv(ptr noundef nonnull align 1 dereferenceable(1) %5) #22
  call void @llvm.memcpy.p0.p0.i64(ptr align 8 %9, ptr align 8 %8, i64 24, i1 false), !tbaa.struct !640
  br label %12

10:                                               ; preds = %2
  %11 = load ptr, ptr %4, align 8, !tbaa !638
  call void @_ZNSt19_Optional_base_implIN3gmx15FepStateSettingESt14_Optional_baseIS1_Lb1ELb1EEE12_M_constructIJS1_EEEvDpOT_(ptr noundef nonnull align 1 dereferenceable(1) %5, ptr noundef nonnull align 8 dereferenceable(24) %11) #22
  br label %12

12:                                               ; preds = %10, %7
  ret ptr %5
}

; Function Attrs: inlinehint mustprogress nounwind uwtable
define linkonce_odr void @_ZN3gmx15FepStateSettingC2Ev(ptr noundef nonnull align 8 dereferenceable(24) %0) unnamed_addr #2 comdat align 2 {
  %2 = alloca ptr, align 8
  store ptr %0, ptr %2, align 8, !tbaa !638
  %3 = load ptr, ptr %2, align 8
  %4 = getelementptr inbounds nuw %"class.gmx::FepStateSetting", ptr %3, i32 0, i32 0
  store i64 -1, ptr %4, align 8, !tbaa !15
  %5 = getelementptr inbounds nuw %"class.gmx::FepStateSetting", ptr %3, i32 0, i32 1
  store i32 -1, ptr %5, align 8, !tbaa !278
  %6 = getelementptr inbounds nuw %"class.gmx::FepStateSetting", ptr %3, i32 0, i32 2
  store i64 -1, ptr %6, align 8, !tbaa !18
  ret void
}

; Function Attrs: inlinehint mustprogress uwtable
define internal void @"_ZZN3gmx26FreeEnergyPerturbationData7Element29enableExternalFepStateSettingEvENK3$_2clEv"(ptr noundef nonnull align 1 dereferenceable(1) %0) #5 align 2 {
  %2 = alloca ptr, align 8
  store ptr %0, ptr %2, align 8, !tbaa !258
  call void @_ZN3gmx8internal13assertHandlerEPKcS2_S2_S2_i(ptr noundef @.str.32, ptr noundef @.str.33, ptr noundef @"__PRETTY_FUNCTION__._ZZN3gmx26FreeEnergyPerturbationData7Element29enableExternalFepStateSettingEvENK3$_0clEv", ptr noundef @.str.27, i32 noundef 314) #26
  unreachable
}

; Function Attrs: mustprogress nounwind uwtable
define linkonce_odr noundef zeroext i1 @_ZNKSt8optionalIN3gmx15FepStateSettingEE9has_valueEv(ptr noundef nonnull align 8 dereferenceable(32) %0) #1 comdat align 2 {
  %2 = alloca ptr, align 8
  store ptr %0, ptr %2, align 8, !tbaa !251
  %3 = load ptr, ptr %2, align 8
  %4 = call noundef zeroext i1 @_ZNKSt19_Optional_base_implIN3gmx15FepStateSettingESt14_Optional_baseIS1_Lb1ELb1EEE13_M_is_engagedEv(ptr noundef nonnull align 1 dereferenceable(1) %3) #22
  ret i1 %4
}

; Function Attrs: inlinehint mustprogress uwtable
define internal void @"_ZZN3gmx26FreeEnergyPerturbationData7Element29enableExternalFepStateSettingEvENK3$_1clEv"(ptr noundef nonnull align 1 dereferenceable(1) %0) #5 align 2 {
  %2 = alloca ptr, align 8
  store ptr %0, ptr %2, align 8, !tbaa !258
  call void @_ZN3gmx8internal13assertHandlerEPKcS2_S2_S2_i(ptr noundef @.str.30, ptr noundef @.str.31, ptr noundef @"__PRETTY_FUNCTION__._ZZN3gmx26FreeEnergyPerturbationData7Element29enableExternalFepStateSettingEvENK3$_0clEv", ptr noundef @.str.27, i32 noundef 307) #26
  unreachable
}

; Function Attrs: inlinehint mustprogress uwtable
define internal void @"_ZZN3gmx26FreeEnergyPerturbationData7Element29enableExternalFepStateSettingEvENK3$_0clEv"(ptr noundef nonnull align 1 dereferenceable(1) %0) #5 align 2 {
  %2 = alloca ptr, align 8
  store ptr %0, ptr %2, align 8, !tbaa !258
  call void @_ZN3gmx8internal13assertHandlerEPKcS2_S2_S2_i(ptr noundef @.str.28, ptr noundef @.str.29, ptr noundef @"__PRETTY_FUNCTION__._ZZN3gmx26FreeEnergyPerturbationData7Element29enableExternalFepStateSettingEvENK3$_0clEv", ptr noundef @.str.27, i32 noundef 304) #26
  unreachable
}

; Function Attrs: mustprogress uwtable
define noundef ptr @_ZN3gmx26FreeEnergyPerturbationData7Element29enableExternalFepStateSettingEv(ptr noundef nonnull align 8 dereferenceable(80) %0) #0 align 2 {
  %2 = alloca ptr, align 8
  %3 = alloca %class.anon.268, align 1
  %4 = alloca %class.anon.270, align 1
  %5 = alloca %class.anon.272, align 1
  %6 = alloca %"class.gmx::FepStateSetting", align 8
  store ptr %0, ptr %2, align 8, !tbaa !4
  %7 = load ptr, ptr %2, align 8
  %8 = getelementptr inbounds nuw %"class.gmx::FreeEnergyPerturbationData::Element", ptr %7, i32 0, i32 4
  %9 = load i8, ptr %8, align 8, !tbaa !21, !range !31, !noundef !32
  %10 = trunc i8 %9 to i1
  call void @llvm.lifetime.start.p0(i64 1, ptr %3) #22
  br i1 %10, label %12, label %11

11:                                               ; preds = %1
  br label %13

12:                                               ; preds = %1
  call void @"_ZZN3gmx26FreeEnergyPerturbationData7Element29enableExternalFepStateSettingEvENK3$_0clEv"(ptr noundef nonnull align 1 dereferenceable(1) %3)
  br label %13

13:                                               ; preds = %12, %11
  call void @llvm.lifetime.end.p0(i64 1, ptr %3) #22
  %14 = getelementptr inbounds nuw %"class.gmx::FreeEnergyPerturbationData::Element", ptr %7, i32 0, i32 7
  %15 = load i32, ptr %14, align 8, !tbaa !39
  %16 = icmp eq i32 %15, 0
  call void @llvm.lifetime.start.p0(i64 1, ptr %4) #22
  br i1 %16, label %17, label %18

17:                                               ; preds = %13
  br label %19

18:                                               ; preds = %13
  call void @"_ZZN3gmx26FreeEnergyPerturbationData7Element29enableExternalFepStateSettingEvENK3$_1clEv"(ptr noundef nonnull align 1 dereferenceable(1) %4)
  br label %19

19:                                               ; preds = %18, %17
  call void @llvm.lifetime.end.p0(i64 1, ptr %4) #22
  %20 = getelementptr inbounds nuw %"class.gmx::FreeEnergyPerturbationData::Element", ptr %7, i32 0, i32 7
  %21 = load i32, ptr %20, align 8, !tbaa !39
  %22 = add nsw i32 %21, 1
  store i32 %22, ptr %20, align 8, !tbaa !39
  %23 = getelementptr inbounds nuw %"class.gmx::FreeEnergyPerturbationData::Element", ptr %7, i32 0, i32 6
  %24 = call noundef zeroext i1 @_ZNKSt8optionalIN3gmx15FepStateSettingEE9has_valueEv(ptr noundef nonnull align 8 dereferenceable(32) %23) #22
  br i1 %24, label %34, label %25

25:                                               ; preds = %19
  %26 = getelementptr inbounds nuw %"class.gmx::FreeEnergyPerturbationData::Element", ptr %7, i32 0, i32 8
  %27 = load i8, ptr %26, align 4, !tbaa !64, !range !31, !noundef !32
  %28 = trunc i8 %27 to i1
  call void @llvm.lifetime.start.p0(i64 1, ptr %5) #22
  br i1 %28, label %30, label %29

29:                                               ; preds = %25
  br label %31

30:                                               ; preds = %25
  call void @"_ZZN3gmx26FreeEnergyPerturbationData7Element29enableExternalFepStateSettingEvENK3$_2clEv"(ptr noundef nonnull align 1 dereferenceable(1) %5)
  br label %31

31:                                               ; preds = %30, %29
  call void @llvm.lifetime.end.p0(i64 1, ptr %5) #22
  call void @llvm.lifetime.start.p0(i64 24, ptr %6) #22
  call void @llvm.memset.p0.i64(ptr align 8 %6, i8 0, i64 24, i1 false)
  call void @_ZN3gmx15FepStateSettingC2Ev(ptr noundef nonnull align 8 dereferenceable(24) %6) #22
  %32 = getelementptr inbounds nuw %"class.gmx::FreeEnergyPerturbationData::Element", ptr %7, i32 0, i32 6
  %33 = call noundef nonnull align 8 dereferenceable(32) ptr @_ZNSt8optionalIN3gmx15FepStateSettingEEaSIS1_EENSt9enable_ifIX7__and_vISt6__not_ISt7is_sameIS2_NSt9remove_cvINSt16remove_referenceIT_E4typeEE4typeEEES5_ISt6__and_IJSt9is_scalarIS1_ES6_IS1_NSt5decayIS9_E4typeEEEEESt16is_constructibleIS1_JS9_EESt13is_assignableIRS1_S9_EEERS2_E4typeEOS9_(ptr noundef nonnull align 8 dereferenceable(32) %32, ptr noundef nonnull align 8 dereferenceable(24) %6) #22
  call void @llvm.lifetime.end.p0(i64 24, ptr %6) #22
  br label %34

34:                                               ; preds = %31, %19
  %35 = getelementptr inbounds nuw %"class.gmx::FreeEnergyPerturbationData::Element", ptr %7, i32 0, i32 6
  %36 = call noundef nonnull align 8 dereferenceable(24) ptr @_ZNRSt8optionalIN3gmx15FepStateSettingEE5valueEv(ptr noundef nonnull align 8 dereferenceable(32) %35)
  ret ptr %36
}