; Function Attrs: mustprogress uwtable
define noundef nonnull ptr @_ZN3gmx26FreeEnergyPerturbationData7Element29enableExternalFepStateSettingEv(ptr noundef nonnull align 8 dereferenceable(80) %0) local_unnamed_addr #0 align 2 personality ptr @__gxx_personality_v0 {
  %2 = getelementptr inbounds nuw i8, ptr %0, i64 32
  %3 = load i8, ptr %2, align 8, !tbaa !11, !range !9, !noundef !10
  %4 = trunc nuw i8 %3 to i1
  br i1 %4, label %5, label %6

5:                                                ; preds = %1
  tail call void @_ZN3gmx8internal13assertHandlerEPKcS2_S2_S2_i(ptr noundef nonnull @.str.28, ptr noundef nonnull @.str.29, ptr noundef nonnull @"__PRETTY_FUNCTION__._ZZN3gmx26FreeEnergyPerturbationData7Element29enableExternalFepStateSettingEvENK3$_0clEv", ptr noundef nonnull @.str.27, i32 noundef 304) #29
  unreachable

6:                                                ; preds = %1
  %7 = getelementptr inbounds nuw i8, ptr %0, i64 72
  %8 = load i32, ptr %7, align 8, !tbaa !201
  %9 = icmp eq i32 %8, 0
  br i1 %9, label %11, label %10

10:                                               ; preds = %6
  tail call void @_ZN3gmx8internal13assertHandlerEPKcS2_S2_S2_i(ptr noundef nonnull @.str.30, ptr noundef nonnull @.str.31, ptr noundef nonnull @"__PRETTY_FUNCTION__._ZZN3gmx26FreeEnergyPerturbationData7Element29enableExternalFepStateSettingEvENK3$_0clEv", ptr noundef nonnull @.str.27, i32 noundef 307) #29
  unreachable

11:                                               ; preds = %6
  store i32 1, ptr %7, align 8, !tbaa !201
  %12 = getelementptr inbounds nuw i8, ptr %0, i64 40
  %13 = getelementptr inbounds nuw i8, ptr %0, i64 64
  %14 = load i8, ptr %13, align 8, !tbaa !4, !range !9, !noundef !10
  %15 = trunc nuw i8 %14 to i1
  br i1 %15, label %_ZNRSt8optionalIN3gmx15FepStateSettingEE5valueEv.exit, label %16

16:                                               ; preds = %11
  %17 = getelementptr inbounds nuw i8, ptr %0, i64 76
  %18 = load i8, ptr %17, align 4, !tbaa !76, !range !9, !noundef !10
  %19 = trunc nuw i8 %18 to i1
  br i1 %19, label %20, label %_ZNSt8optionalIN3gmx15FepStateSettingEEaSIS1_EENSt9enable_ifIX7__and_vISt6__not_ISt7is_sameIS2_NSt9remove_cvINSt16remove_referenceIT_E4typeEE4typeEEES5_ISt6__and_IJSt9is_scalarIS1_ES6_IS1_NSt5decayIS9_E4typeEEEEESt16is_constructibleIS1_JS9_EESt13is_assignableIRS1_S9_EEERS2_E4typeEOS9_.exit

20:                                               ; preds = %16
  tail call void @_ZN3gmx8internal13assertHandlerEPKcS2_S2_S2_i(ptr noundef nonnull @.str.32, ptr noundef nonnull @.str.33, ptr noundef nonnull @"__PRETTY_FUNCTION__._ZZN3gmx26FreeEnergyPerturbationData7Element29enableExternalFepStateSettingEvENK3$_0clEv", ptr noundef nonnull @.str.27, i32 noundef 314) #29
  unreachable

_ZNSt8optionalIN3gmx15FepStateSettingEEaSIS1_EENSt9enable_ifIX7__and_vISt6__not_ISt7is_sameIS2_NSt9remove_cvINSt16remove_referenceIT_E4typeEE4typeEEES5_ISt6__and_IJSt9is_scalarIS1_ES6_IS1_NSt5decayIS9_E4typeEEEEESt16is_constructibleIS1_JS9_EESt13is_assignableIRS1_S9_EEERS2_E4typeEOS9_.exit: ; preds = %16
  store i64 -1, ptr %12, align 8
  %.sroa.5.0..sroa_idx = getelementptr inbounds nuw i8, ptr %0, i64 48
  store i32 -1, ptr %.sroa.5.0..sroa_idx, align 8
  %.sroa.6.0..sroa_idx = getelementptr inbounds nuw i8, ptr %0, i64 52
  store i32 0, ptr %.sroa.6.0..sroa_idx, align 4
  %.sroa.61.0..sroa_idx = getelementptr inbounds nuw i8, ptr %0, i64 56
  store i64 -1, ptr %.sroa.61.0..sroa_idx, align 8
  store i8 1, ptr %13, align 8, !tbaa !4
  br label %_ZNRSt8optionalIN3gmx15FepStateSettingEE5valueEv.exit

_ZNRSt8optionalIN3gmx15FepStateSettingEE5valueEv.exit: ; preds = %11, %_ZNSt8optionalIN3gmx15FepStateSettingEEaSIS1_EENSt9enable_ifIX7__and_vISt6__not_ISt7is_sameIS2_NSt9remove_cvINSt16remove_referenceIT_E4typeEE4typeEEES5_ISt6__and_IJSt9is_scalarIS1_ES6_IS1_NSt5decayIS9_E4typeEEEEESt16is_constructibleIS1_JS9_EESt13is_assignableIRS1_S9_EEERS2_E4typeEOS9_.exit
  ret ptr %12
}